; Function Attrs: nofree norecurse nosync nounwind memory(read, inaccessiblemem: none) uwtable
define zeroext i1 @lv_obj_has_class(ptr noundef readonly captures(none) %0, ptr noundef readnone captures(address) %1) local_unnamed_addr #4 {
  br label %3

3:                                                ; preds = %3, %2
  %.0.in = phi ptr [ %0, %2 ], [ %.0, %3 ]
  %.0 = load ptr, ptr %.0.in, align 8, !tbaa !93
  %.not = icmp ne ptr %.0, null
  %4 = icmp ne ptr %.0, %1
  %or.cond.not = and i1 %4, %.not
  br i1 %or.cond.not, label %3, label %5, !llvm.loop !94

5:                                                ; preds = %3
  ret i1 %.not
}